target datalayout = "e-m:e-p270:32:32-p271:32:32-p272:64:64-i64:64-i128:128-f80:128-n8:16:32:64-S128"
target triple = "x86_64-pc-linux-gnu"

; Function Attrs: nounwind uwtable
define internal i32 @pg_latin12wchar_with_len(ptr noundef %0, ptr noundef %1, i32 noundef %2) #1 {
  %4 = alloca ptr, align 8
  %5 = alloca ptr, align 8
  %6 = alloca i32, align 4
  %7 = alloca i32, align 4
  store ptr %0, ptr %4, align 8
  store ptr %1, ptr %5, align 8
  store i32 %2, ptr %6, align 4
  call void @llvm.lifetime.start.p0(i64 4, ptr %7) #7
  store i32 0, ptr %7, align 4
  br label %8

8:                                                ; preds = %18, %3
  %9 = load i32, ptr %6, align 4
  %10 = icmp sgt i32 %9, 0
  br i1 %10, label %11, label %16

11:                                               ; preds = %8
  %12 = load ptr, ptr %4, align 8
  %13 = load i8, ptr %12, align 1
  %14 = zext i8 %13 to i32
  %15 = icmp ne i32 %14, 0
  br label %16

16:                                               ; preds = %11, %8
  %17 = phi i1 [ false, %8 ], [ %15, %11 ]
  br i1 %17, label %18, label %29

18:                                               ; preds = %16
  %19 = load ptr, ptr %4, align 8
  %20 = getelementptr inbounds nuw i8, ptr %19, i32 1
  store ptr %20, ptr %4, align 8
  %21 = load i8, ptr %19, align 1
  %22 = zext i8 %21 to i32
  %23 = load ptr, ptr %5, align 8
  %24 = getelementptr inbounds nuw i32, ptr %23, i32 1
  store ptr %24, ptr %5, align 8
  store i32 %22, ptr %23, align 4
  %25 = load i32, ptr %6, align 4
  %26 = add i32 %25, -1
  store i32 %26, ptr %6, align 4
  %27 = load i32, ptr %7, align 4
  %28 = add i32 %27, 1
  store i32 %28, ptr %7, align 4
  br label %8, !llvm.loop !22

29:                                               ; preds = %16
  %30 = load ptr, ptr %5, align 8
  store i32 0, ptr %30, align 4
  %31 = load i32, ptr %7, align 4
  call void @llvm.lifetime.end.p0(i64 4, ptr %7) #7
  ret i32 %31
}